target datalayout = "e-m:e-p270:32:32-p271:32:32-p272:64:64-i64:64-i128:128-f80:128-n8:16:32:64-S128"
target triple = "x86_64-pc-linux-gnu"

%"class.std::vector" = type { %"struct.std::_Vector_base" }
%"struct.std::_Vector_base" = type { %"struct.std::_Vector_base<casadi::MX, std::allocator<casadi::MX>>::_Vector_impl" }
%"struct.std::_Vector_base<casadi::MX, std::allocator<casadi::MX>>::_Vector_impl" = type { %"struct.std::_Vector_base<casadi::MX, std::allocator<casadi::MX>>::_Vector_impl_data" }
%"struct.std::_Vector_base<casadi::MX, std::allocator<casadi::MX>>::_Vector_impl_data" = type { ptr, ptr, ptr }
%"class.casadi::SharedObject" = type { %"class.casadi::GenericShared" }
%"class.casadi::GenericShared" = type { ptr }
%"class.casadi::MXNode" = type { %"class.casadi::SharedObjectInternal", i64, %"class.std::vector", %"class.casadi::Sparsity" }
%"class.casadi::SharedObjectInternal" = type { %"class.casadi::GenericSharedInternal", i64 }
%"class.casadi::GenericSharedInternal" = type { ptr, ptr }
%"class.casadi::Sparsity" = type { %"class.casadi::SharedObject" }

; Function Attrs: mustprogress uwtable
define linkonce_odr hidden noundef i64 @_ZNK6casadi6MXNode3nnzEx(ptr noundef nonnull align 8 dereferenceable(64) %0, i64 noundef %1) #4 comdat align 2 {
  %3 = alloca ptr, align 8
  %4 = alloca i64, align 8
  store ptr %0, ptr %3, align 8, !tbaa !47
  store i64 %1, ptr %4, align 8, !tbaa !34
  %5 = load ptr, ptr %3, align 8
  %6 = load i64, ptr %4, align 8, !tbaa !34
  %7 = load ptr, ptr %5, align 8, !tbaa !10
  %8 = getelementptr inbounds ptr, ptr %7, i64 49
  %9 = load ptr, ptr %8, align 8
  %10 = call noundef nonnull align 8 dereferenceable(8) ptr %9(ptr noundef nonnull align 8 dereferenceable(64) %5, i64 noundef %6)
  %11 = call noundef i64 @_ZNK6casadi8Sparsity3nnzEv(ptr noundef nonnull align 8 dereferenceable(8) %10)
  ret i64 %11
}

; Function Attrs: mustprogress nounwind uwtable
define linkonce_odr hidden noundef nonnull align 8 dereferenceable(8) ptr @_ZNK6casadi6MXNode8sparsityEv(ptr noundef nonnull align 8 dereferenceable(64) %0) #7 comdat align 2 {
  %2 = alloca ptr, align 8
  store ptr %0, ptr %2, align 8, !tbaa !47
  %3 = load ptr, ptr %2, align 8
  %4 = getelementptr inbounds nuw %"class.casadi::MXNode", ptr %3, i32 0, i32 3
  ret ptr %4
}

; Function Attrs: mustprogress uwtable
define noundef i32 @_ZNK6casadi5Rank110sp_reverseEPPyS2_PxS1_(ptr noundef nonnull align 8 dereferenceable(64) %0, ptr noundef %1, ptr noundef %2, ptr noundef %3, ptr noundef %4) unnamed_addr #4 align 2 {
  %6 = alloca ptr, align 8
  %7 = alloca ptr, align 8
  %8 = alloca ptr, align 8
  %9 = alloca ptr, align 8
  %10 = alloca ptr, align 8
  %11 = alloca i64, align 8
  %12 = alloca ptr, align 8
  %13 = alloca ptr, align 8
  %14 = alloca i64, align 8
  %15 = alloca i64, align 8
  %16 = alloca i64, align 8
  store ptr %0, ptr %6, align 8, !tbaa !3
  store ptr %1, ptr %7, align 8, !tbaa !64
  store ptr %2, ptr %8, align 8, !tbaa !64
  store ptr %3, ptr %9, align 8, !tbaa !54
  store ptr %4, ptr %10, align 8, !tbaa !54
  %17 = load ptr, ptr %6, align 8
  call void @llvm.lifetime.start.p0(i64 8, ptr %11) #3
  %18 = call noundef nonnull align 8 dereferenceable(8) ptr @_ZNK6casadi6MXNode8sparsityEv(ptr noundef nonnull align 8 dereferenceable(64) %17)
  %19 = call noundef i64 @_ZNK6casadi8Sparsity5size2Ev(ptr noundef nonnull align 8 dereferenceable(8) %18)
  store i64 %19, ptr %11, align 8, !tbaa !34
  call void @llvm.lifetime.start.p0(i64 8, ptr %12) #3
  %20 = call noundef nonnull align 8 dereferenceable(8) ptr @_ZNK6casadi6MXNode8sparsityEv(ptr noundef nonnull align 8 dereferenceable(64) %17)
  %21 = call noundef ptr @_ZNK6casadi8Sparsity6colindEv(ptr noundef nonnull align 8 dereferenceable(8) %20)
  store ptr %21, ptr %12, align 8, !tbaa !54
  call void @llvm.lifetime.start.p0(i64 8, ptr %13) #3
  %22 = call noundef nonnull align 8 dereferenceable(8) ptr @_ZNK6casadi6MXNode8sparsityEv(ptr noundef nonnull align 8 dereferenceable(64) %17)
  %23 = call noundef ptr @_ZNK6casadi8Sparsity3rowEv(ptr noundef nonnull align 8 dereferenceable(8) %22)
  store ptr %23, ptr %13, align 8, !tbaa !54
  call void @llvm.lifetime.start.p0(i64 8, ptr %14) #3
  call void @llvm.lifetime.start.p0(i64 8, ptr %15) #3
  call void @llvm.lifetime.start.p0(i64 8, ptr %16) #3
  store i64 0, ptr %14, align 8, !tbaa !34
  br label %24

24:                                               ; preds = %87, %5
  %25 = load i64, ptr %14, align 8, !tbaa !34
  %26 = load i64, ptr %11, align 8, !tbaa !34
  %27 = icmp slt i64 %25, %26
  br i1 %27, label %28, label %90

28:                                               ; preds = %24
  %29 = load ptr, ptr %12, align 8, !tbaa !54
  %30 = load i64, ptr %14, align 8, !tbaa !34
  %31 = getelementptr inbounds i64, ptr %29, i64 %30
  %32 = load i64, ptr %31, align 8, !tbaa !34
  store i64 %32, ptr %16, align 8, !tbaa !34
  br label %33

33:                                               ; preds = %83, %28
  %34 = load i64, ptr %16, align 8, !tbaa !34
  %35 = load ptr, ptr %12, align 8, !tbaa !54
  %36 = load i64, ptr %14, align 8, !tbaa !34
  %37 = add nsw i64 %36, 1
  %38 = getelementptr inbounds i64, ptr %35, i64 %37
  %39 = load i64, ptr %38, align 8, !tbaa !34
  %40 = icmp slt i64 %34, %39
  br i1 %40, label %41, label %86

41:                                               ; preds = %33
  %42 = load ptr, ptr %13, align 8, !tbaa !54
  %43 = load i64, ptr %16, align 8, !tbaa !34
  %44 = getelementptr inbounds i64, ptr %42, i64 %43
  %45 = load i64, ptr %44, align 8, !tbaa !34
  store i64 %45, ptr %15, align 8, !tbaa !34
  %46 = load ptr, ptr %8, align 8, !tbaa !64
  %47 = getelementptr inbounds ptr, ptr %46, i64 0
  %48 = load ptr, ptr %47, align 8, !tbaa !54
  %49 = load i64, ptr %16, align 8, !tbaa !34
  %50 = getelementptr inbounds i64, ptr %48, i64 %49
  %51 = load i64, ptr %50, align 8, !tbaa !34
  %52 = load ptr, ptr %7, align 8, !tbaa !64
  %53 = getelementptr inbounds ptr, ptr %52, i64 1
  %54 = load ptr, ptr %53, align 8, !tbaa !54
  %55 = load i64, ptr %54, align 8, !tbaa !34
  %56 = or i64 %55, %51
  store i64 %56, ptr %54, align 8, !tbaa !34
  %57 = load ptr, ptr %8, align 8, !tbaa !64
  %58 = getelementptr inbounds ptr, ptr %57, i64 0
  %59 = load ptr, ptr %58, align 8, !tbaa !54
  %60 = load i64, ptr %16, align 8, !tbaa !34
  %61 = getelementptr inbounds i64, ptr %59, i64 %60
  %62 = load i64, ptr %61, align 8, !tbaa !34
  %63 = load ptr, ptr %7, align 8, !tbaa !64
  %64 = getelementptr inbounds ptr, ptr %63, i64 2
  %65 = load ptr, ptr %64, align 8, !tbaa !54
  %66 = load i64, ptr %15, align 8, !tbaa !34
  %67 = getelementptr inbounds i64, ptr %65, i64 %66
  %68 = load i64, ptr %67, align 8, !tbaa !34
  %69 = or i64 %68, %62
  store i64 %69, ptr %67, align 8, !tbaa !34
  %70 = load ptr, ptr %8, align 8, !tbaa !64
  %71 = getelementptr inbounds ptr, ptr %70, i64 0
  %72 = load ptr, ptr %71, align 8, !tbaa !54
  %73 = load i64, ptr %16, align 8, !tbaa !34
  %74 = getelementptr inbounds i64, ptr %72, i64 %73
  %75 = load i64, ptr %74, align 8, !tbaa !34
  %76 = load ptr, ptr %7, align 8, !tbaa !64
  %77 = getelementptr inbounds ptr, ptr %76, i64 3
  %78 = load ptr, ptr %77, align 8, !tbaa !54
  %79 = load i64, ptr %14, align 8, !tbaa !34
  %80 = getelementptr inbounds i64, ptr %78, i64 %79
  %81 = load i64, ptr %80, align 8, !tbaa !34
  %82 = or i64 %81, %75
  store i64 %82, ptr %80, align 8, !tbaa !34
  br label %83

83:                                               ; preds = %41
  %84 = load i64, ptr %16, align 8, !tbaa !34
  %85 = add nsw i64 %84, 1
  store i64 %85, ptr %16, align 8, !tbaa !34
  br label %33, !llvm.loop !70

86:                                               ; preds = %33
  br label %87

87:                                               ; preds = %86
  %88 = load i64, ptr %14, align 8, !tbaa !34
  %89 = add nsw i64 %88, 1
  store i64 %89, ptr %14, align 8, !tbaa !34
  br label %24, !llvm.loop !71

90:                                               ; preds = %24
  %91 = load ptr, ptr %7, align 8, !tbaa !64
  %92 = getelementptr inbounds ptr, ptr %91, i64 0
  %93 = load ptr, ptr %92, align 8, !tbaa !54
  %94 = load ptr, ptr %8, align 8, !tbaa !64
  %95 = getelementptr inbounds ptr, ptr %94, i64 0
  %96 = load ptr, ptr %95, align 8, !tbaa !54
  %97 = call noundef i64 @_ZNK6casadi6MXNode3nnzEx(ptr noundef nonnull align 8 dereferenceable(64) %17, i64 noundef 0)
  call void @_ZN6casadi6MXNode8copy_revEPyS1_x(ptr noundef %93, ptr noundef %96, i64 noundef %97)
  call void @llvm.lifetime.end.p0(i64 8, ptr %16) #3
  call void @llvm.lifetime.end.p0(i64 8, ptr %15) #3
  call void @llvm.lifetime.end.p0(i64 8, ptr %14) #3
  call void @llvm.lifetime.end.p0(i64 8, ptr %13) #3
  call void @llvm.lifetime.end.p0(i64 8, ptr %12) #3
  call void @llvm.lifetime.end.p0(i64 8, ptr %11) #3
  ret i32 0
}