; Function Attrs: mustprogress uwtable
define noundef i32 @_ZNK6casadi5Rank110sp_reverseEPPyS2_PxS1_(ptr noundef nonnull align 8 dereferenceable(64) %0, ptr noundef readonly captures(none) %1, ptr noundef readonly captures(none) %2, ptr readnone captures(none) %3, ptr readnone captures(none) %4) unnamed_addr #3 align 2 {
  %6 = getelementptr inbounds nuw i8, ptr %0, i64 56
  %7 = tail call noundef i64 @_ZNK6casadi8Sparsity5size2Ev(ptr noundef nonnull align 8 dereferenceable(8) %6)
  %8 = tail call noundef ptr @_ZNK6casadi8Sparsity6colindEv(ptr noundef nonnull align 8 dereferenceable(8) %6)
  %9 = tail call noundef ptr @_ZNK6casadi8Sparsity3rowEv(ptr noundef nonnull align 8 dereferenceable(8) %6)
  %10 = icmp sgt i64 %7, 0
  br i1 %10, label %.lr.ph27, label %._crit_edge

.lr.ph27:                                         ; preds = %5
  %11 = getelementptr inbounds nuw i8, ptr %1, i64 8
  %12 = getelementptr inbounds nuw i8, ptr %1, i64 16
  %13 = getelementptr inbounds nuw i8, ptr %1, i64 24
  %.pre = load i64, ptr %8, align 8, !tbaa !62
  br label %15

.loopexit:                                        ; preds = %26, %15
  %14 = phi i64 [ %19, %15 ], [ %41, %26 ]
  %exitcond.not = icmp eq i64 %17, %7
  br i1 %exitcond.not, label %._crit_edge, label %15, !llvm.loop !74

15:                                               ; preds = %.lr.ph27, %.loopexit
  %16 = phi i64 [ %.pre, %.lr.ph27 ], [ %14, %.loopexit ]
  %.02426 = phi i64 [ 0, %.lr.ph27 ], [ %17, %.loopexit ]
  %17 = add nuw nsw i64 %.02426, 1
  %18 = getelementptr inbounds nuw i64, ptr %8, i64 %17
  %19 = load i64, ptr %18, align 8, !tbaa !62
  %20 = icmp slt i64 %16, %19
  br i1 %20, label %.lr.ph, label %.loopexit

.lr.ph:                                           ; preds = %15
  %21 = load ptr, ptr %2, align 8, !tbaa !70
  %22 = load ptr, ptr %11, align 8, !tbaa !70
  %23 = load ptr, ptr %12, align 8, !tbaa !70
  %24 = load ptr, ptr %13, align 8, !tbaa !70
  %25 = getelementptr inbounds nuw i64, ptr %24, i64 %.02426
  br label %26

26:                                               ; preds = %.lr.ph, %26
  %.025 = phi i64 [ %16, %.lr.ph ], [ %40, %26 ]
  %27 = getelementptr inbounds i64, ptr %9, i64 %.025
  %28 = load i64, ptr %27, align 8, !tbaa !62
  %29 = getelementptr inbounds i64, ptr %21, i64 %.025
  %30 = load i64, ptr %29, align 8, !tbaa !62
  %31 = load i64, ptr %22, align 8, !tbaa !62
  %32 = or i64 %31, %30
  store i64 %32, ptr %22, align 8, !tbaa !62
  %33 = load i64, ptr %29, align 8, !tbaa !62
  %34 = getelementptr inbounds i64, ptr %23, i64 %28
  %35 = load i64, ptr %34, align 8, !tbaa !62
  %36 = or i64 %35, %33
  store i64 %36, ptr %34, align 8, !tbaa !62
  %37 = load i64, ptr %29, align 8, !tbaa !62
  %38 = load i64, ptr %25, align 8, !tbaa !62
  %39 = or i64 %38, %37
  store i64 %39, ptr %25, align 8, !tbaa !62
  %40 = add nsw i64 %.025, 1
  %41 = load i64, ptr %18, align 8, !tbaa !62
  %42 = icmp slt i64 %40, %41
  br i1 %42, label %26, label %.loopexit, !llvm.loop !75

._crit_edge:                                      ; preds = %.loopexit, %5
  %43 = load ptr, ptr %1, align 8, !tbaa !70
  %44 = load ptr, ptr %2, align 8, !tbaa !70
  %45 = load ptr, ptr %0, align 8, !tbaa !3
  %46 = getelementptr inbounds nuw i8, ptr %45, i64 392
  %47 = load ptr, ptr %46, align 8
  %48 = tail call noundef nonnull align 8 dereferenceable(8) ptr %47(ptr noundef nonnull align 8 dereferenceable(64) %0, i64 noundef 0)
  %49 = tail call noundef i64 @_ZNK6casadi8Sparsity3nnzEv(ptr noundef nonnull align 8 dereferenceable(8) %48)
  tail call void @_ZN6casadi6MXNode8copy_revEPyS1_x(ptr noundef %43, ptr noundef %44, i64 noundef %49)
  ret i32 0
}